; Function Attrs: nounwind uwtable
define internal fastcc i32 @ftp_state_mdtm(ptr noundef %0) unnamed_addr #0 {
  %2 = getelementptr inbounds nuw i8, ptr %0, i64 24
  %3 = load ptr, ptr %2, align 8, !tbaa !107
  %4 = getelementptr inbounds nuw i8, ptr %3, i64 1056
  %5 = getelementptr inbounds nuw i8, ptr %0, i64 2562
  %6 = load i64, ptr %5, align 2
  %7 = and i64 %6, 64
  %.not = icmp eq i64 %7, 0
  br i1 %.not, label %8, label %11

8:                                                ; preds = %1
  %9 = getelementptr inbounds nuw i8, ptr %0, i64 1320
  %10 = load i8, ptr %9, align 8, !tbaa !190
  %.not13 = icmp eq i8 %10, 0
  br i1 %.not13, label %37, label %11

11:                                               ; preds = %8, %1
  %12 = getelementptr inbounds nuw i8, ptr %3, i64 1240
  %13 = load ptr, ptr %12, align 8, !tbaa !145
  %.not14 = icmp eq ptr %13, null
  br i1 %.not14, label %37, label %14

14:                                               ; preds = %11
  %15 = tail call i32 (ptr, ptr, ptr, ...) @Curl_pp_sendf(ptr noundef nonnull %0, ptr noundef nonnull %4, ptr noundef nonnull @.str.86, ptr noundef nonnull %13) #10
  %.not15 = icmp eq i32 %15, 0
  br i1 %.not15, label %16, label %ftp_state_type.exit

16:                                               ; preds = %14
  %17 = load ptr, ptr %2, align 8, !tbaa !107
  %18 = getelementptr inbounds nuw i8, ptr %17, i64 1326
  %19 = load i8, ptr %18, align 2, !tbaa !138
  %.not18 = icmp eq i8 %19, 18
  br i1 %.not18, label %_ftp_state.exit, label %20

20:                                               ; preds = %16
  %21 = load i64, ptr %5, align 2
  %22 = and i64 %21, 134217728
  %.not.i = icmp eq i64 %22, 0
  br i1 %.not.i, label %_ftp_state.exit, label %23

23:                                               ; preds = %20
  %24 = getelementptr inbounds nuw i8, ptr %0, i64 4712
  %25 = load ptr, ptr %24, align 8, !tbaa !104
  %.not20.i = icmp eq ptr %25, null
  br i1 %.not20.i, label %32, label %26

26:                                               ; preds = %23
  %27 = getelementptr inbounds nuw i8, ptr %25, i64 8
  %28 = load i32, ptr %27, align 8, !tbaa !105
  %29 = icmp sgt i32 %28, 0
  %30 = load i32, ptr getelementptr inbounds nuw (i8, ptr @Curl_trc_feat_ftp, i64 8), align 8
  %31 = icmp sgt i32 %30, 0
  %or.cond.i = select i1 %29, i1 %31, i1 false
  br i1 %or.cond.i, label %33, label %_ftp_state.exit

32:                                               ; preds = %23
  %.old.i = load i32, ptr getelementptr inbounds nuw (i8, ptr @Curl_trc_feat_ftp, i64 8), align 8, !tbaa !105
  %.old1.i = icmp sgt i32 %.old.i, 0
  br i1 %.old1.i, label %33, label %_ftp_state.exit

33:                                               ; preds = %32, %26
  %34 = zext i8 %19 to i64
  %35 = getelementptr inbounds nuw [35 x ptr], ptr @ftp_state_names, i64 0, i64 %34
  %36 = load ptr, ptr %35, align 8, !tbaa !8
  tail call void (ptr, ptr, ...) @Curl_trc_ftp(ptr noundef nonnull %0, ptr noundef nonnull @.str.7, ptr noundef %36, ptr noundef nonnull @.str.27) #10
  br label %_ftp_state.exit

_ftp_state.exit:                                  ; preds = %16, %20, %26, %32, %33
  store i8 18, ptr %18, align 2, !tbaa !138
  br label %ftp_state_type.exit

37:                                               ; preds = %11, %8
  %38 = getelementptr inbounds nuw i8, ptr %0, i64 432
  %39 = load ptr, ptr %38, align 8, !tbaa !21
  %40 = getelementptr inbounds nuw i8, ptr %0, i64 449
  %41 = load i32, ptr %40, align 1
  %42 = and i32 %41, 131072
  %.not.i16 = icmp eq i32 %42, 0
  br i1 %.not.i16, label %59, label %43

43:                                               ; preds = %37
  %44 = getelementptr inbounds nuw i8, ptr %3, i64 1240
  %45 = load ptr, ptr %44, align 8, !tbaa !145
  %.not18.i = icmp eq ptr %45, null
  br i1 %.not18.i, label %59, label %46

46:                                               ; preds = %43
  %47 = getelementptr inbounds nuw i8, ptr %0, i64 4876
  %48 = load i32, ptr %47, align 4
  %49 = and i32 %48, 16384
  %.not19 = icmp eq i32 %49, 0
  %50 = getelementptr i8, ptr %3, i64 1272
  %.val.i = load i8, ptr %50, align 8, !tbaa !21
  %51 = sext i8 %.val.i to i32
  %52 = select i1 %.not19, i32 73, i32 65
  %.not20 = icmp eq i32 %52, %51
  br i1 %.not20, label %59, label %53

53:                                               ; preds = %46
  %54 = getelementptr inbounds nuw i8, ptr %39, i64 16
  store i32 1, ptr %54, align 8, !tbaa !97
  %55 = load i32, ptr %47, align 4
  %56 = and i32 %55, 16384
  %57 = icmp ne i32 %56, 0
  %58 = tail call fastcc i32 @ftp_nb_type(ptr noundef nonnull %0, ptr noundef nonnull %3, i1 noundef zeroext %57, i8 noundef zeroext 19)
  br label %ftp_state_type.exit

59:                                               ; preds = %46, %43, %37
  %60 = tail call fastcc i32 @ftp_state_size(ptr noundef nonnull %0, ptr noundef %3)
  br label %ftp_state_type.exit

ftp_state_type.exit:                              ; preds = %59, %53, %14, %_ftp_state.exit
  %.0 = phi i32 [ %15, %14 ], [ 0, %_ftp_state.exit ], [ %60, %59 ], [ %58, %53 ]
  ret i32 %.0
}